; Function Attrs: mustprogress uwtable
define internal fastcc noundef range(i32 -5, 2) i32 @_ZN5folly11compression4zlib12_GLOBAL__N_116zlibThrowOnErrorEi(i32 noundef returned %0) unnamed_addr #1 personality ptr @__gxx_personality_v0 {
  %2 = alloca i32, align 4
  %3 = alloca %"class.std::__cxx11::basic_string", align 8
  store i32 %0, ptr %2, align 4, !tbaa !7
  switch i32 %0, label %5 [
    i32 0, label %4
    i32 -5, label %4
    i32 1, label %4
  ]

4:                                                ; preds = %1, %1, %1
  ret i32 %0

5:                                                ; preds = %1
  %6 = tail call ptr @__cxa_allocate_exception(i64 16) #25
  call void @llvm.lifetime.start.p0(i64 32, ptr nonnull %3) #25
  invoke void @_ZN5folly2toINSt7__cxx1112basic_stringIcSt11char_traitsIcESaIcEEEJA25_ciETnNSt9enable_ifIXaasr12IsSomeStringIT_EE5valueoonesZT0_Li1Entsr3std7is_sameIS9_19__type_pack_elementIXmisPvDpT0_ELi1EEJvSC_EEEE5valueEiE4typeELi0EEES9_DpRKSB_(ptr dead_on_unwind nonnull writable sret(%"class.std::__cxx11::basic_string") align 8 %3, ptr noundef nonnull align 1 dereferenceable(25) @.str.24, ptr noundef nonnull align 4 dereferenceable(4) %2)
          to label %7 unwind label %_ZNSt7__cxx1112basic_stringIcSt11char_traitsIcESaIcEED2Ev.exit.thread

7:                                                ; preds = %5
  invoke void @_ZNSt13runtime_errorC1ERKNSt7__cxx1112basic_stringIcSt11char_traitsIcESaIcEEE(ptr noundef nonnull align 8 dereferenceable(16) %6, ptr noundef nonnull align 8 dereferenceable(32) %3)
          to label %8 unwind label %10

8:                                                ; preds = %7
  invoke void @__cxa_throw(ptr nonnull %6, ptr nonnull @_ZTISt13runtime_error, ptr nonnull @_ZNSt13runtime_errorD1Ev) #26
          to label %22 unwind label %10

_ZNSt7__cxx1112basic_stringIcSt11char_traitsIcESaIcEED2Ev.exit.thread: ; preds = %5
  %9 = landingpad { ptr, i32 }
          cleanup
  call void @llvm.lifetime.end.p0(i64 32, ptr nonnull %3) #25
  br label %20

10:                                               ; preds = %8, %7
  %.0 = phi i1 [ false, %8 ], [ true, %7 ]
  %11 = landingpad { ptr, i32 }
          cleanup
  %12 = load ptr, ptr %3, align 8, !tbaa !44
  %13 = getelementptr inbounds nuw i8, ptr %3, i64 16
  %14 = icmp eq ptr %12, %13
  br i1 %14, label %_ZNKSt7__cxx1112basic_stringIcSt11char_traitsIcESaIcEE11_M_is_localEv.exit.thread.i.i, label %_ZNSt7__cxx1112basic_stringIcSt11char_traitsIcESaIcEED2Ev.exit

_ZNKSt7__cxx1112basic_stringIcSt11char_traitsIcESaIcEE11_M_is_localEv.exit.thread.i.i: ; preds = %10
  %15 = getelementptr inbounds nuw i8, ptr %3, i64 8
  %16 = load i64, ptr %15, align 8, !tbaa !48
  %17 = icmp ult i64 %16, 16
  call void @llvm.assume(i1 %17)
  call void @llvm.lifetime.end.p0(i64 32, ptr nonnull %3) #25
  br i1 %.0, label %20, label %21

_ZNSt7__cxx1112basic_stringIcSt11char_traitsIcESaIcEED2Ev.exit: ; preds = %10
  %18 = load i64, ptr %13, align 8, !tbaa !34
  %19 = add i64 %18, 1
  call void @_ZdlPvm(ptr noundef %12, i64 noundef %19) #27
  call void @llvm.lifetime.end.p0(i64 32, ptr nonnull %3) #25
  br i1 %.0, label %20, label %21

20:                                               ; preds = %_ZNKSt7__cxx1112basic_stringIcSt11char_traitsIcESaIcEE11_M_is_localEv.exit.thread.i.i, %_ZNSt7__cxx1112basic_stringIcSt11char_traitsIcESaIcEED2Ev.exit.thread, %_ZNSt7__cxx1112basic_stringIcSt11char_traitsIcESaIcEED2Ev.exit
  %.pn8 = phi { ptr, i32 } [ %9, %_ZNSt7__cxx1112basic_stringIcSt11char_traitsIcESaIcEED2Ev.exit.thread ], [ %11, %_ZNSt7__cxx1112basic_stringIcSt11char_traitsIcESaIcEED2Ev.exit ], [ %11, %_ZNKSt7__cxx1112basic_stringIcSt11char_traitsIcESaIcEE11_M_is_localEv.exit.thread.i.i ]
  call void @__cxa_free_exception(ptr %6) #25
  br label %21

21:                                               ; preds = %_ZNKSt7__cxx1112basic_stringIcSt11char_traitsIcESaIcEE11_M_is_localEv.exit.thread.i.i, %_ZNSt7__cxx1112basic_stringIcSt11char_traitsIcESaIcEED2Ev.exit, %20
  %.pn7 = phi { ptr, i32 } [ %11, %_ZNSt7__cxx1112basic_stringIcSt11char_traitsIcESaIcEED2Ev.exit ], [ %.pn8, %20 ], [ %11, %_ZNKSt7__cxx1112basic_stringIcSt11char_traitsIcESaIcEE11_M_is_localEv.exit.thread.i.i ]
  resume { ptr, i32 } %.pn7

22:                                               ; preds = %8
  unreachable
}